target datalayout = "e-m:e-p270:32:32-p271:32:32-p272:64:64-i64:64-i128:128-f80:128-n8:16:32:64-S128"
target triple = "x86_64-pc-linux-gnu"

%struct.VLC = type { i32, ptr, i32, i32 }

@dc_vlc = internal global [2 x %struct.VLC] zeroinitializer, align 16
@ac_vlc = internal global [2 x %struct.VLC] zeroinitializer, align 16
@ff_mjpeg_bits_ac_chrominance = external hidden constant [0 x i8], align 1
@ff_mjpeg_bits_ac_luminance = external hidden constant [0 x i8], align 1
@ff_mjpeg_val_ac_chrominance = external hidden constant [0 x i8], align 1
@ff_mjpeg_val_ac_luminance = external hidden constant [0 x i8], align 1
@vec_entry_vlc = internal global [2 x %struct.VLC] zeroinitializer, align 16
@mss4_vec_entry_vlc_syms = internal constant [2 x [9 x i8]] [[9 x i8] c"\00\07\06\05\08\04\03\01\02", [9 x i8] c"\00\02\03\04\05\06\07\01\08"], align 16
@mss4_dc_vlc_lens = internal constant <{ <{ [8 x i8], [8 x i8] }>, [16 x i8] }> <{ <{ [8 x i8], [8 x i8] }> <{ [8 x i8] c"\00\01\05\01\01\01\01\02", [8 x i8] zeroinitializer }>, [16 x i8] c"\00\03\01\01\01\01\01\01\01\02\00\00\00\00\00\00" }>, align 16
@mss4_vec_entry_vlc_lens = internal constant [2 x <{ i8, i8, i8, i8, i8, [11 x i8] }>] [<{ i8, i8, i8, i8, i8, [11 x i8] }> <{ i8 0, i8 2, i8 2, i8 3, i8 2, [11 x i8] zeroinitializer }>, <{ i8, i8, i8, i8, i8, [11 x i8] }> <{ i8 0, i8 1, i8 5, i8 1, i8 2, [11 x i8] zeroinitializer }>], align 16

; Function Attrs: cold nounwind optsize uwtable
define internal void @mss4_init_vlcs() #0 {
  %1 = alloca i32, align 4
  %2 = alloca i32, align 4
  call void @llvm.lifetime.start.p0(i64 4, ptr %1) #10
  store i32 0, ptr %1, align 4, !tbaa !31
  call void @llvm.lifetime.start.p0(i64 4, ptr %2) #10
  store i32 0, ptr %2, align 4, !tbaa !31
  br label %3

3:                                                ; preds = %35, %0
  %4 = load i32, ptr %1, align 4, !tbaa !31
  %5 = icmp ult i32 %4, 2
  br i1 %5, label %7, label %6

6:                                                ; preds = %3
  call void @llvm.lifetime.end.p0(i64 4, ptr %2) #10
  call void @llvm.lifetime.end.p0(i64 4, ptr %1) #10
  br label %38

7:                                                ; preds = %3
  %8 = load i32, ptr %1, align 4, !tbaa !31
  %9 = zext i32 %8 to i64
  %10 = getelementptr inbounds nuw [2 x %struct.VLC], ptr @dc_vlc, i64 0, i64 %9
  %11 = load i32, ptr %1, align 4, !tbaa !31
  %12 = zext i32 %11 to i64
  %13 = getelementptr inbounds nuw [2 x [16 x i8]], ptr @mss4_dc_vlc_lens, i64 0, i64 %12
  %14 = getelementptr inbounds [16 x i8], ptr %13, i64 0, i64 0
  call void @mss4_init_vlc(ptr noundef %10, ptr noundef %2, ptr noundef %14, ptr noundef null) #11
  %15 = load i32, ptr %1, align 4, !tbaa !31
  %16 = zext i32 %15 to i64
  %17 = getelementptr inbounds nuw [2 x %struct.VLC], ptr @ac_vlc, i64 0, i64 %16
  %18 = load i32, ptr %1, align 4, !tbaa !31
  %19 = icmp ne i32 %18, 0
  %20 = select i1 %19, ptr getelementptr inbounds (i8, ptr @ff_mjpeg_bits_ac_chrominance, i64 1), ptr getelementptr inbounds (i8, ptr @ff_mjpeg_bits_ac_luminance, i64 1)
  %21 = load i32, ptr %1, align 4, !tbaa !31
  %22 = icmp ne i32 %21, 0
  %23 = select i1 %22, ptr @ff_mjpeg_val_ac_chrominance, ptr @ff_mjpeg_val_ac_luminance
  call void @mss4_init_vlc(ptr noundef %17, ptr noundef %2, ptr noundef %20, ptr noundef %23) #11
  %24 = load i32, ptr %1, align 4, !tbaa !31
  %25 = zext i32 %24 to i64
  %26 = getelementptr inbounds nuw [2 x %struct.VLC], ptr @vec_entry_vlc, i64 0, i64 %25
  %27 = load i32, ptr %1, align 4, !tbaa !31
  %28 = zext i32 %27 to i64
  %29 = getelementptr inbounds nuw [2 x [16 x i8]], ptr @mss4_vec_entry_vlc_lens, i64 0, i64 %28
  %30 = getelementptr inbounds [16 x i8], ptr %29, i64 0, i64 0
  %31 = load i32, ptr %1, align 4, !tbaa !31
  %32 = zext i32 %31 to i64
  %33 = getelementptr inbounds nuw [2 x [9 x i8]], ptr @mss4_vec_entry_vlc_syms, i64 0, i64 %32
  %34 = getelementptr inbounds [9 x i8], ptr %33, i64 0, i64 0
  call void @mss4_init_vlc(ptr noundef %26, ptr noundef %2, ptr noundef %30, ptr noundef %34) #11
  br label %35

35:                                               ; preds = %7
  %36 = load i32, ptr %1, align 4, !tbaa !31
  %37 = add i32 %36, 1
  store i32 %37, ptr %1, align 4, !tbaa !31
  br label %3, !llvm.loop !61

38:                                               ; preds = %6
  ret void
}