; Function Attrs: cold nounwind optsize uwtable
define internal void @mss4_init_vlcs() #0 {
  %1 = alloca i32, align 4
  call void @llvm.lifetime.start.p0(i64 4, ptr nonnull %1) #8
  store i32 0, ptr %1, align 4, !tbaa !48
  br label %3

2:                                                ; preds = %3
  call void @llvm.lifetime.end.p0(i64 4, ptr nonnull %1) #8
  ret void

3:                                                ; preds = %0, %3
  %.not = phi i1 [ true, %0 ], [ false, %3 ]
  %indvars.iv = phi i64 [ 0, %0 ], [ 1, %3 ]
  %4 = getelementptr inbounds nuw [2 x %struct.VLC], ptr @dc_vlc, i64 0, i64 %indvars.iv
  %5 = getelementptr inbounds nuw [2 x [16 x i8]], ptr @mss4_dc_vlc_lens, i64 0, i64 %indvars.iv
  call fastcc void @mss4_init_vlc(ptr noundef nonnull %4, ptr noundef %1, ptr noundef nonnull %5, ptr noundef null) #9
  %6 = getelementptr inbounds nuw [2 x %struct.VLC], ptr @ac_vlc, i64 0, i64 %indvars.iv
  %7 = select i1 %.not, ptr getelementptr inbounds nuw (i8, ptr @ff_mjpeg_bits_ac_luminance, i64 1), ptr getelementptr inbounds nuw (i8, ptr @ff_mjpeg_bits_ac_chrominance, i64 1)
  %8 = select i1 %.not, ptr @ff_mjpeg_val_ac_luminance, ptr @ff_mjpeg_val_ac_chrominance
  call fastcc void @mss4_init_vlc(ptr noundef nonnull %6, ptr noundef %1, ptr noundef nonnull %7, ptr noundef nonnull %8) #9
  %9 = getelementptr inbounds nuw [2 x %struct.VLC], ptr @vec_entry_vlc, i64 0, i64 %indvars.iv
  %10 = getelementptr inbounds nuw [2 x [16 x i8]], ptr @mss4_vec_entry_vlc_lens, i64 0, i64 %indvars.iv
  %11 = getelementptr inbounds nuw [2 x [9 x i8]], ptr @mss4_vec_entry_vlc_syms, i64 0, i64 %indvars.iv
  call fastcc void @mss4_init_vlc(ptr noundef nonnull %9, ptr noundef %1, ptr noundef nonnull %10, ptr noundef nonnull %11) #9
  br i1 %.not, label %3, label %2, !llvm.loop !83
}